; Function Attrs: nounwind uwtable
define void @Gls_ManStop(ptr noundef captures(none) %0) local_unnamed_addr #2 {
  %2 = load ptr, ptr %0, align 8
  %3 = getelementptr inbounds nuw i8, ptr %2, i64 8
  %4 = load ptr, ptr %3, align 8
  %.not.i = icmp eq ptr %4, null
  br i1 %.not.i, label %Vec_StrFree.exit, label %5

5:                                                ; preds = %1
  tail call void @free(ptr noundef nonnull %4) #24
  br label %Vec_StrFree.exit

Vec_StrFree.exit:                                 ; preds = %1, %5
  tail call void @free(ptr noundef nonnull %2) #24
  %6 = getelementptr inbounds nuw i8, ptr %0, i64 8
  %7 = load ptr, ptr %6, align 8
  %8 = getelementptr inbounds nuw i8, ptr %7, i64 8
  %9 = load ptr, ptr %8, align 8
  %.not.i19 = icmp eq ptr %9, null
  br i1 %.not.i19, label %Vec_StrFree.exit20, label %10

10:                                               ; preds = %Vec_StrFree.exit
  tail call void @free(ptr noundef nonnull %9) #24
  br label %Vec_StrFree.exit20

Vec_StrFree.exit20:                               ; preds = %Vec_StrFree.exit, %10
  tail call void @free(ptr noundef nonnull %7) #24
  %11 = getelementptr inbounds nuw i8, ptr %0, i64 16
  %12 = load ptr, ptr %11, align 8
  %13 = getelementptr inbounds nuw i8, ptr %12, i64 8
  %14 = load ptr, ptr %13, align 8
  %.not.i21 = icmp eq ptr %14, null
  br i1 %.not.i21, label %Vec_IntFree.exit, label %15

15:                                               ; preds = %Vec_StrFree.exit20
  tail call void @free(ptr noundef nonnull %14) #24
  br label %Vec_IntFree.exit

Vec_IntFree.exit:                                 ; preds = %Vec_StrFree.exit20, %15
  tail call void @free(ptr noundef nonnull %12) #24
  %16 = getelementptr inbounds nuw i8, ptr %0, i64 24
  %17 = load ptr, ptr %16, align 8
  %18 = getelementptr inbounds nuw i8, ptr %17, i64 8
  %19 = load ptr, ptr %18, align 8
  %.not.i22 = icmp eq ptr %19, null
  br i1 %.not.i22, label %Vec_IntFree.exit23, label %20

20:                                               ; preds = %Vec_IntFree.exit
  tail call void @free(ptr noundef nonnull %19) #24
  br label %Vec_IntFree.exit23

Vec_IntFree.exit23:                               ; preds = %Vec_IntFree.exit, %20
  tail call void @free(ptr noundef nonnull %17) #24
  %21 = getelementptr inbounds nuw i8, ptr %0, i64 32
  %22 = load ptr, ptr %21, align 8
  %23 = getelementptr inbounds nuw i8, ptr %22, i64 8
  %24 = load ptr, ptr %23, align 8
  %.not.i24 = icmp eq ptr %24, null
  br i1 %.not.i24, label %Vec_IntFree.exit25, label %25

25:                                               ; preds = %Vec_IntFree.exit23
  tail call void @free(ptr noundef nonnull %24) #24
  br label %Vec_IntFree.exit25

Vec_IntFree.exit25:                               ; preds = %Vec_IntFree.exit23, %25
  tail call void @free(ptr noundef nonnull %22) #24
  %26 = getelementptr inbounds nuw i8, ptr %0, i64 40
  %27 = load ptr, ptr %26, align 8
  %28 = getelementptr inbounds nuw i8, ptr %27, i64 8
  %29 = load ptr, ptr %28, align 8
  %.not.i26 = icmp eq ptr %29, null
  br i1 %.not.i26, label %Vec_IntFree.exit27, label %30

30:                                               ; preds = %Vec_IntFree.exit25
  tail call void @free(ptr noundef nonnull %29) #24
  br label %Vec_IntFree.exit27

Vec_IntFree.exit27:                               ; preds = %Vec_IntFree.exit25, %30
  tail call void @free(ptr noundef nonnull %27) #24
  %31 = getelementptr inbounds nuw i8, ptr %0, i64 48
  %32 = load ptr, ptr %31, align 8
  %33 = getelementptr inbounds nuw i8, ptr %32, i64 8
  %34 = load ptr, ptr %33, align 8
  %.not.i28 = icmp eq ptr %34, null
  br i1 %.not.i28, label %Vec_WrdFree.exit, label %35

35:                                               ; preds = %Vec_IntFree.exit27
  tail call void @free(ptr noundef nonnull %34) #24
  br label %Vec_WrdFree.exit

Vec_WrdFree.exit:                                 ; preds = %Vec_IntFree.exit27, %35
  tail call void @free(ptr noundef nonnull %32) #24
  %36 = getelementptr inbounds nuw i8, ptr %0, i64 56
  %37 = load ptr, ptr %36, align 8
  %38 = getelementptr inbounds nuw i8, ptr %37, i64 8
  %39 = load ptr, ptr %38, align 8
  %.not.i29 = icmp eq ptr %39, null
  br i1 %.not.i29, label %Vec_IntFree.exit30, label %40

40:                                               ; preds = %Vec_WrdFree.exit
  tail call void @free(ptr noundef nonnull %39) #24
  br label %Vec_IntFree.exit30

Vec_IntFree.exit30:                               ; preds = %Vec_WrdFree.exit, %40
  tail call void @free(ptr noundef nonnull %37) #24
  %41 = getelementptr inbounds nuw i8, ptr %0, i64 80
  %42 = load ptr, ptr %41, align 8
  %43 = getelementptr inbounds nuw i8, ptr %42, i64 8
  %44 = load ptr, ptr %43, align 8
  %.not.i31 = icmp eq ptr %44, null
  br i1 %.not.i31, label %Vec_IntFree.exit32, label %45

45:                                               ; preds = %Vec_IntFree.exit30
  tail call void @free(ptr noundef nonnull %44) #24
  br label %Vec_IntFree.exit32

Vec_IntFree.exit32:                               ; preds = %Vec_IntFree.exit30, %45
  tail call void @free(ptr noundef nonnull %42) #24
  %46 = getelementptr inbounds nuw i8, ptr %0, i64 64
  %47 = load ptr, ptr %46, align 8
  %48 = load i32, ptr %47, align 8
  %49 = icmp sgt i32 %48, 0
  br i1 %49, label %.lr.ph.i.i, label %._crit_edge.i.i

.lr.ph.i.i:                                       ; preds = %Vec_IntFree.exit32
  %50 = getelementptr inbounds nuw i8, ptr %47, i64 8
  br label %51

51:                                               ; preds = %59, %.lr.ph.i.i
  %52 = phi i32 [ %48, %.lr.ph.i.i ], [ %60, %59 ]
  %indvars.iv.i.i = phi i64 [ 0, %.lr.ph.i.i ], [ %indvars.iv.next.i.i, %59 ]
  %53 = load ptr, ptr %50, align 8
  %54 = getelementptr inbounds nuw %struct.Vec_Int_t_, ptr %53, i64 %indvars.iv.i.i, i32 2
  %55 = load ptr, ptr %54, align 8
  %.not15.i.i = icmp eq ptr %55, null
  br i1 %.not15.i.i, label %59, label %56

56:                                               ; preds = %51
  tail call void @free(ptr noundef nonnull %55) #24
  %57 = load ptr, ptr %50, align 8
  %58 = getelementptr inbounds nuw %struct.Vec_Int_t_, ptr %57, i64 %indvars.iv.i.i, i32 2
  store ptr null, ptr %58, align 8
  %.pre.i.i = load i32, ptr %47, align 8
  br label %59

59:                                               ; preds = %56, %51
  %60 = phi i32 [ %.pre.i.i, %56 ], [ %52, %51 ]
  %indvars.iv.next.i.i = add nuw nsw i64 %indvars.iv.i.i, 1
  %61 = sext i32 %60 to i64
  %62 = icmp slt i64 %indvars.iv.next.i.i, %61
  br i1 %62, label %51, label %._crit_edge.i.i, !llvm.loop !4

._crit_edge.i.i:                                  ; preds = %59, %Vec_IntFree.exit32
  %63 = getelementptr inbounds nuw i8, ptr %47, i64 8
  %64 = load ptr, ptr %63, align 8
  %.not.i.i = icmp eq ptr %64, null
  br i1 %.not.i.i, label %Vec_WecFree.exit, label %65

65:                                               ; preds = %._crit_edge.i.i
  tail call void @free(ptr noundef nonnull %64) #24
  br label %Vec_WecFree.exit

Vec_WecFree.exit:                                 ; preds = %._crit_edge.i.i, %65
  tail call void @free(ptr noundef nonnull %47) #24
  %66 = getelementptr inbounds nuw i8, ptr %0, i64 72
  %67 = load ptr, ptr %66, align 8
  %68 = load i32, ptr %67, align 8
  %69 = icmp sgt i32 %68, 0
  br i1 %69, label %.lr.ph.i.i35, label %._crit_edge.i.i33

.lr.ph.i.i35:                                     ; preds = %Vec_WecFree.exit
  %70 = getelementptr inbounds nuw i8, ptr %67, i64 8
  br label %71

71:                                               ; preds = %79, %.lr.ph.i.i35
  %72 = phi i32 [ %68, %.lr.ph.i.i35 ], [ %80, %79 ]
  %indvars.iv.i.i36 = phi i64 [ 0, %.lr.ph.i.i35 ], [ %indvars.iv.next.i.i39, %79 ]
  %73 = load ptr, ptr %70, align 8
  %74 = getelementptr inbounds nuw %struct.Vec_Int_t_, ptr %73, i64 %indvars.iv.i.i36, i32 2
  %75 = load ptr, ptr %74, align 8
  %.not15.i.i37 = icmp eq ptr %75, null
  br i1 %.not15.i.i37, label %79, label %76

76:                                               ; preds = %71
  tail call void @free(ptr noundef nonnull %75) #24
  %77 = load ptr, ptr %70, align 8
  %78 = getelementptr inbounds nuw %struct.Vec_Int_t_, ptr %77, i64 %indvars.iv.i.i36, i32 2
  store ptr null, ptr %78, align 8
  %.pre.i.i38 = load i32, ptr %67, align 8
  br label %79

79:                                               ; preds = %76, %71
  %80 = phi i32 [ %.pre.i.i38, %76 ], [ %72, %71 ]
  %indvars.iv.next.i.i39 = add nuw nsw i64 %indvars.iv.i.i36, 1
  %81 = sext i32 %80 to i64
  %82 = icmp slt i64 %indvars.iv.next.i.i39, %81
  br i1 %82, label %71, label %._crit_edge.i.i33, !llvm.loop !4

._crit_edge.i.i33:                                ; preds = %79, %Vec_WecFree.exit
  %83 = getelementptr inbounds nuw i8, ptr %67, i64 8
  %84 = load ptr, ptr %83, align 8
  %.not.i.i34 = icmp eq ptr %84, null
  br i1 %.not.i.i34, label %Vec_WecFree.exit40, label %85

85:                                               ; preds = %._crit_edge.i.i33
  tail call void @free(ptr noundef nonnull %84) #24
  br label %Vec_WecFree.exit40

Vec_WecFree.exit40:                               ; preds = %._crit_edge.i.i33, %85
  tail call void @free(ptr noundef nonnull %67) #24
  %86 = getelementptr inbounds nuw i8, ptr %0, i64 88
  %87 = load ptr, ptr %86, align 8
  %88 = getelementptr inbounds nuw i8, ptr %87, i64 8
  %89 = load ptr, ptr %88, align 8
  %.not.i41 = icmp eq ptr %89, null
  br i1 %.not.i41, label %Vec_IntFree.exit42, label %90

90:                                               ; preds = %Vec_WecFree.exit40
  tail call void @free(ptr noundef nonnull %89) #24
  br label %Vec_IntFree.exit42

Vec_IntFree.exit42:                               ; preds = %Vec_WecFree.exit40, %90
  tail call void @free(ptr noundef nonnull %87) #24
  %91 = getelementptr inbounds nuw i8, ptr %0, i64 96
  %92 = load ptr, ptr %91, align 8
  %93 = getelementptr inbounds nuw i8, ptr %92, i64 8
  %94 = load ptr, ptr %93, align 8
  %.not.i43 = icmp eq ptr %94, null
  br i1 %.not.i43, label %Vec_IntFree.exit44, label %95

95:                                               ; preds = %Vec_IntFree.exit42
  tail call void @free(ptr noundef nonnull %94) #24
  br label %Vec_IntFree.exit44

Vec_IntFree.exit44:                               ; preds = %Vec_IntFree.exit42, %95
  tail call void @free(ptr noundef nonnull %92) #24
  %96 = getelementptr inbounds nuw i8, ptr %0, i64 104
  %97 = load ptr, ptr %96, align 8
  %98 = getelementptr inbounds nuw i8, ptr %97, i64 8
  %99 = load ptr, ptr %98, align 8
  %.not.i45 = icmp eq ptr %99, null
  br i1 %.not.i45, label %Vec_IntFree.exit46, label %100

100:                                              ; preds = %Vec_IntFree.exit44
  tail call void @free(ptr noundef nonnull %99) #24
  br label %Vec_IntFree.exit46

Vec_IntFree.exit46:                               ; preds = %Vec_IntFree.exit44, %100
  tail call void @free(ptr noundef nonnull %97) #24
  %101 = getelementptr inbounds nuw i8, ptr %0, i64 112
  %102 = load ptr, ptr %101, align 8
  %103 = getelementptr inbounds nuw i8, ptr %102, i64 8
  %104 = load ptr, ptr %103, align 8
  %.not.i47 = icmp eq ptr %104, null
  br i1 %.not.i47, label %Vec_IntFree.exit48, label %105

105:                                              ; preds = %Vec_IntFree.exit46
  tail call void @free(ptr noundef nonnull %104) #24
  br label %Vec_IntFree.exit48

Vec_IntFree.exit48:                               ; preds = %Vec_IntFree.exit46, %105
  tail call void @free(ptr noundef nonnull %102) #24
  %106 = getelementptr inbounds nuw i8, ptr %0, i64 120
  %107 = load ptr, ptr %106, align 8
  %108 = getelementptr inbounds nuw i8, ptr %107, i64 8
  %109 = load ptr, ptr %108, align 8
  %.not.i49 = icmp eq ptr %109, null
  br i1 %.not.i49, label %Vec_IntFree.exit50, label %110

110:                                              ; preds = %Vec_IntFree.exit48
  tail call void @free(ptr noundef nonnull %109) #24
  br label %Vec_IntFree.exit50

Vec_IntFree.exit50:                               ; preds = %Vec_IntFree.exit48, %110
  tail call void @free(ptr noundef nonnull %107) #24
  %111 = getelementptr inbounds nuw i8, ptr %0, i64 128
  %112 = load ptr, ptr %111, align 8
  %113 = getelementptr inbounds nuw i8, ptr %112, i64 8
  %114 = load ptr, ptr %113, align 8
  %.not.i51 = icmp eq ptr %114, null
  br i1 %.not.i51, label %Vec_IntFree.exit52, label %115

115:                                              ; preds = %Vec_IntFree.exit50
  tail call void @free(ptr noundef nonnull %114) #24
  br label %Vec_IntFree.exit52

Vec_IntFree.exit52:                               ; preds = %Vec_IntFree.exit50, %115
  tail call void @free(ptr noundef nonnull %112) #24
  tail call void @free(ptr noundef nonnull %0) #24
  ret void
}